; Function Attrs: mustprogress nofree norecurse nosync nounwind willreturn memory(argmem: readwrite) uwtable
define hidden range(i32 0, 2) i32 @OPENSSL_gmtime_adj(ptr noundef captures(none) %0, i32 noundef %1, i64 noundef %2) local_unnamed_addr #2 {
  %4 = sdiv i64 %2, 86400
  %5 = trunc i64 %4 to i32
  %.neg.i = mul i64 %4, 4294880896
  %6 = add i64 %.neg.i, %2
  %7 = trunc i64 %6 to i32
  %8 = add nsw i32 %1, %5
  %9 = getelementptr inbounds nuw i8, ptr %0, i64 8
  %10 = load i32, ptr %9, align 8, !tbaa !6
  %11 = mul nsw i32 %10, 3600
  %12 = getelementptr inbounds nuw i8, ptr %0, i64 4
  %13 = load i32, ptr %12, align 4, !tbaa !14
  %14 = mul nsw i32 %13, 60
  %15 = load i32, ptr %0, align 8, !tbaa !15
  %16 = add i32 %11, %7
  %17 = add i32 %16, %14
  %18 = add i32 %17, %15
  %19 = icmp sgt i32 %18, 86399
  br i1 %19, label %20, label %23

20:                                               ; preds = %3
  %21 = add nsw i32 %8, 1
  %22 = add nsw i32 %18, -86400
  br label %28

23:                                               ; preds = %3
  %24 = icmp slt i32 %18, 0
  br i1 %24, label %25, label %28

25:                                               ; preds = %23
  %26 = add nsw i32 %8, -1
  %27 = add nsw i32 %18, 86400
  br label %28

28:                                               ; preds = %25, %23, %20
  %.029.i = phi i32 [ %21, %20 ], [ %26, %25 ], [ %8, %23 ]
  %.028.i = phi i32 [ %22, %20 ], [ %27, %25 ], [ %18, %23 ]
  %29 = getelementptr inbounds nuw i8, ptr %0, i64 20
  %30 = load i32, ptr %29, align 4, !tbaa !16
  %31 = add nsw i32 %30, 1900
  %32 = getelementptr inbounds nuw i8, ptr %0, i64 16
  %33 = load i32, ptr %32, align 8, !tbaa !17
  %34 = getelementptr inbounds nuw i8, ptr %0, i64 12
  %35 = load i32, ptr %34, align 4, !tbaa !18
  %36 = add nsw i32 %33, -13
  %37 = sdiv i32 %36, 12
  %38 = add i32 %31, %37
  %39 = mul i32 %38, 1461
  %40 = add i32 %39, 7012800
  %41 = sdiv i32 %40, 4
  %42 = add nsw i32 %33, -1
  %.neg.i.i = mul nsw i32 %37, -12
  %43 = add i32 %42, %.neg.i.i
  %44 = mul nsw i32 %43, 367
  %45 = sdiv i32 %44, 12
  %46 = add i32 %38, 4900
  %47 = sdiv i32 %46, 100
  %48 = mul nsw i32 %47, 3
  %.neg7.i.i = sdiv i32 %48, -4
  %49 = add i32 %35, -32075
  %50 = add i32 %49, %41
  %51 = add i32 %50, %45
  %52 = add i32 %51, %.neg7.i.i
  %53 = sext i32 %52 to i64
  %54 = sext i32 %.029.i to i64
  %55 = add nsw i64 %53, %54
  %56 = icmp slt i64 %55, 0
  br i1 %56, label %julian_adj.exit.thread, label %julian_adj.exit

julian_adj.exit:                                  ; preds = %28
  %57 = add nuw nsw i64 %55, 68569
  %58 = shl nuw nsw i64 %57, 2
  %59 = udiv i64 %58, 146097
  %60 = mul nuw nsw i64 %59, 146097
  %61 = add nuw nsw i64 %60, 3
  %.neg.i112223 = lshr i64 %61, 2
  %62 = sub nsw i64 %57, %.neg.i112223
  %63 = mul nsw i64 %62, 4000
  %64 = add nsw i64 %63, 4000
  %65 = sdiv i64 %64, 1461001
  %66 = mul nsw i64 %65, 1461
  %.neg18.i = sdiv i64 %66, -4
  %67 = add nsw i64 %62, 31
  %68 = add nsw i64 %67, %.neg18.i
  %69 = mul nsw i64 %68, 80
  %70 = sdiv i64 %69, 26917
  %71 = mul nuw nsw i64 %59, 100
  %72 = add nuw nsw i64 %71, 4294962396
  %73 = add nsw i64 %72, %65
  %74 = add nsw i64 %73, %70
  %75 = trunc i64 %74 to i32
  %76 = add nsw i32 %75, -10000
  %or.cond = icmp ult i32 %76, -8100
  br i1 %or.cond, label %julian_adj.exit.thread, label %77

77:                                               ; preds = %julian_adj.exit
  %78 = sdiv i64 %69, 2447
  %79 = add nsw i64 %78, 2
  %.neg20.i = mul nsw i64 %70, 4294967284
  %80 = add nsw i64 %79, %.neg20.i
  %81 = trunc i64 %80 to i32
  %82 = mul nsw i64 %78, 2447
  %.neg19.i = sdiv i64 %82, -80
  %83 = add nsw i64 %.neg19.i, %68
  %84 = trunc i64 %83 to i32
  %85 = add nsw i32 %75, -1900
  store i32 %85, ptr %29, align 4, !tbaa !16
  %86 = add nsw i32 %81, -1
  store i32 %86, ptr %32, align 8, !tbaa !17
  store i32 %84, ptr %34, align 4, !tbaa !18
  %87 = sdiv i32 %.028.i, 3600
  store i32 %87, ptr %9, align 8, !tbaa !6
  %88 = sdiv i32 %.028.i, 60
  %89 = srem i32 %88, 60
  store i32 %89, ptr %12, align 4, !tbaa !14
  %90 = srem i32 %.028.i, 60
  store i32 %90, ptr %0, align 8, !tbaa !15
  br label %julian_adj.exit.thread

julian_adj.exit.thread:                           ; preds = %28, %julian_adj.exit, %77
  %.0 = phi i32 [ 1, %77 ], [ 0, %julian_adj.exit ], [ 0, %28 ]
  ret i32 %.0
}